#include <math.h>
#include <stdio.h>
#include <stdlib.h>
#include <string.h>
#include <iostream>
using namespace std;

//??????
int fun(int n);
int main()
{
	int n = 0, i = 0, x = 0;
	cin >> n;
	for (i = 1; i <= n; i++)
	{
		cin >> x;
		cout << fun(x) << endl;
	}
	return 0;
}
int fun(int n)
{
	if (n == 1 || n == 2)
		return 1;
	else
		return fun(n - 1) + fun(n - 2);
}
